target datalayout = "e-m:e-p270:32:32-p271:32:32-p272:64:64-i64:64-i128:128-f80:128-n8:16:32:64-S128"
target triple = "x86_64-pc-linux-gnu"

%struct.InterpFilterParams = type { ptr, i16, i8 }

; Function Attrs: nounwind uwtable
define internal zeroext i8 @clip_pixel(i32 noundef %0) #0 {
  %2 = alloca i32, align 4
  store i32 %0, ptr %2, align 4
  %3 = load i32, ptr %2, align 4
  %4 = icmp sgt i32 %3, 255
  br i1 %4, label %5, label %6

5:                                                ; preds = %1
  br label %14

6:                                                ; preds = %1
  %7 = load i32, ptr %2, align 4
  %8 = icmp slt i32 %7, 0
  br i1 %8, label %9, label %10

9:                                                ; preds = %6
  br label %12

10:                                               ; preds = %6
  %11 = load i32, ptr %2, align 4
  br label %12

12:                                               ; preds = %10, %9
  %13 = phi i32 [ 0, %9 ], [ %11, %10 ]
  br label %14

14:                                               ; preds = %12, %5
  %15 = phi i32 [ 255, %5 ], [ %13, %12 ]
  %16 = trunc i32 %15 to i8
  ret i8 %16
}

; Function Attrs: nounwind uwtable
define internal ptr @av1_get_interp_filter_subpel_kernel(ptr noundef %0, i32 noundef %1) #0 {
  %3 = alloca ptr, align 8
  %4 = alloca i32, align 4
  store ptr %0, ptr %3, align 8
  store i32 %1, ptr %4, align 4
  %5 = load ptr, ptr %3, align 8
  %6 = getelementptr inbounds nuw %struct.InterpFilterParams, ptr %5, i32 0, i32 0
  %7 = load ptr, ptr %6, align 8
  %8 = load ptr, ptr %3, align 8
  %9 = getelementptr inbounds nuw %struct.InterpFilterParams, ptr %8, i32 0, i32 1
  %10 = load i16, ptr %9, align 8
  %11 = zext i16 %10 to i32
  %12 = load i32, ptr %4, align 4
  %13 = mul nsw i32 %11, %12
  %14 = sext i32 %13 to i64
  %15 = getelementptr inbounds i16, ptr %7, i64 %14
  ret ptr %15
}

; Function Attrs: nounwind uwtable
define hidden void @av1_convolve_y_sr_c(ptr noundef %0, i32 noundef %1, ptr noundef %2, i32 noundef %3, i32 noundef %4, i32 noundef %5, ptr noundef %6, i32 noundef %7) #0 {
  %9 = alloca ptr, align 8
  %10 = alloca i32, align 4
  %11 = alloca ptr, align 8
  %12 = alloca i32, align 4
  %13 = alloca i32, align 4
  %14 = alloca i32, align 4
  %15 = alloca ptr, align 8
  %16 = alloca i32, align 4
  %17 = alloca i32, align 4
  %18 = alloca ptr, align 8
  %19 = alloca i32, align 4
  %20 = alloca i32, align 4
  %21 = alloca i32, align 4
  %22 = alloca i32, align 4
  store ptr %0, ptr %9, align 8
  store i32 %1, ptr %10, align 4
  store ptr %2, ptr %11, align 8
  store i32 %3, ptr %12, align 4
  store i32 %4, ptr %13, align 4
  store i32 %5, ptr %14, align 4
  store ptr %6, ptr %15, align 8
  store i32 %7, ptr %16, align 4
  %23 = load ptr, ptr %15, align 8
  %24 = getelementptr inbounds nuw %struct.InterpFilterParams, ptr %23, i32 0, i32 1
  %25 = load i16, ptr %24, align 8
  %26 = zext i16 %25 to i32
  %27 = sdiv i32 %26, 2
  %28 = sub nsw i32 %27, 1
  store i32 %28, ptr %17, align 4
  %29 = load ptr, ptr %15, align 8
  %30 = load i32, ptr %16, align 4
  %31 = and i32 %30, 15
  %32 = call ptr @av1_get_interp_filter_subpel_kernel(ptr noundef %29, i32 noundef %31)
  store ptr %32, ptr %18, align 8
  store i32 0, ptr %19, align 4
  br label %33

33:                                               ; preds = %94, %8
  %34 = load i32, ptr %19, align 4
  %35 = load i32, ptr %14, align 4
  %36 = icmp slt i32 %34, %35
  br i1 %36, label %37, label %97

37:                                               ; preds = %33
  store i32 0, ptr %20, align 4
  br label %38

38:                                               ; preds = %90, %37
  %39 = load i32, ptr %20, align 4
  %40 = load i32, ptr %13, align 4
  %41 = icmp slt i32 %39, %40
  br i1 %41, label %42, label %93

42:                                               ; preds = %38
  store i32 0, ptr %21, align 4
  store i32 0, ptr %22, align 4
  br label %43

43:                                               ; preds = %74, %42
  %44 = load i32, ptr %22, align 4
  %45 = load ptr, ptr %15, align 8
  %46 = getelementptr inbounds nuw %struct.InterpFilterParams, ptr %45, i32 0, i32 1
  %47 = load i16, ptr %46, align 8
  %48 = zext i16 %47 to i32
  %49 = icmp slt i32 %44, %48
  br i1 %49, label %50, label %77

50:                                               ; preds = %43
  %51 = load ptr, ptr %18, align 8
  %52 = load i32, ptr %22, align 4
  %53 = sext i32 %52 to i64
  %54 = getelementptr inbounds i16, ptr %51, i64 %53
  %55 = load i16, ptr %54, align 2
  %56 = sext i16 %55 to i32
  %57 = load ptr, ptr %9, align 8
  %58 = load i32, ptr %19, align 4
  %59 = load i32, ptr %17, align 4
  %60 = sub nsw i32 %58, %59
  %61 = load i32, ptr %22, align 4
  %62 = add nsw i32 %60, %61
  %63 = load i32, ptr %10, align 4
  %64 = mul nsw i32 %62, %63
  %65 = load i32, ptr %20, align 4
  %66 = add nsw i32 %64, %65
  %67 = sext i32 %66 to i64
  %68 = getelementptr inbounds i8, ptr %57, i64 %67
  %69 = load i8, ptr %68, align 1
  %70 = zext i8 %69 to i32
  %71 = mul nsw i32 %56, %70
  %72 = load i32, ptr %21, align 4
  %73 = add nsw i32 %72, %71
  store i32 %73, ptr %21, align 4
  br label %74

74:                                               ; preds = %50
  %75 = load i32, ptr %22, align 4
  %76 = add nsw i32 %75, 1
  store i32 %76, ptr %22, align 4
  br label %43, !llvm.loop !23

77:                                               ; preds = %43
  %78 = load i32, ptr %21, align 4
  %79 = add nsw i32 %78, 64
  %80 = ashr i32 %79, 7
  %81 = call zeroext i8 @clip_pixel(i32 noundef %80)
  %82 = load ptr, ptr %11, align 8
  %83 = load i32, ptr %19, align 4
  %84 = load i32, ptr %12, align 4
  %85 = mul nsw i32 %83, %84
  %86 = load i32, ptr %20, align 4
  %87 = add nsw i32 %85, %86
  %88 = sext i32 %87 to i64
  %89 = getelementptr inbounds i8, ptr %82, i64 %88
  store i8 %81, ptr %89, align 1
  br label %90

90:                                               ; preds = %77
  %91 = load i32, ptr %20, align 4
  %92 = add nsw i32 %91, 1
  store i32 %92, ptr %20, align 4
  br label %38, !llvm.loop !24

93:                                               ; preds = %38
  br label %94

94:                                               ; preds = %93
  %95 = load i32, ptr %19, align 4
  %96 = add nsw i32 %95, 1
  store i32 %96, ptr %19, align 4
  br label %33, !llvm.loop !25

97:                                               ; preds = %33
  ret void
}