; Function Attrs: nofree norecurse nosync nounwind memory(read, argmem: readwrite, inaccessiblemem: none) uwtable
define hidden void @av1_convolve_y_sr_c(ptr noundef readonly captures(none) %0, i32 noundef %1, ptr noundef writeonly captures(none) %2, i32 noundef %3, i32 noundef %4, i32 noundef %5, ptr noundef readonly captures(none) %6, i32 noundef %7) local_unnamed_addr #1 {
  %9 = getelementptr inbounds nuw i8, ptr %6, i64 8
  %10 = load i16, ptr %9, align 8
  %11 = and i32 %7, 15
  %.val = load ptr, ptr %6, align 8
  %12 = zext i16 %10 to i32
  %13 = mul nuw nsw i32 %11, %12
  %14 = zext nneg i32 %13 to i64
  %15 = getelementptr inbounds nuw i16, ptr %.val, i64 %14
  %16 = icmp sgt i32 %5, 0
  %17 = icmp sgt i32 %4, 0
  %or.cond = and i1 %16, %17
  br i1 %or.cond, label %.preheader30.us.preheader, label %._crit_edge36

.preheader30.us.preheader:                        ; preds = %8
  %18 = lshr i16 %10, 1
  %19 = sext i32 %1 to i64
  %20 = sext i32 %3 to i64
  %21 = zext nneg i16 %18 to i64
  %wide.trip.count50 = zext nneg i32 %5 to i64
  %wide.trip.count43 = zext nneg i32 %4 to i64
  br label %.preheader30.us

.preheader30.us:                                  ; preds = %.preheader30.us.preheader, %._crit_edge34.us
  %indvars.iv45 = phi i64 [ 0, %.preheader30.us.preheader ], [ %indvars.iv.next46, %._crit_edge34.us ]
  %22 = sub nsw i64 %indvars.iv45, %21
  %23 = add nsw i64 %22, 1
  %24 = mul nsw i64 %indvars.iv45, %20
  %invariant.gep52 = getelementptr i8, ptr %2, i64 %24
  br label %.preheader.us

._crit_edge.us.loopexit:                          ; preds = %.lr.ph.us
  %25 = add nsw i32 %38, 64
  %26 = ashr i32 %25, 7
  br label %._crit_edge.us

._crit_edge.us:                                   ; preds = %._crit_edge.us.loopexit, %.preheader.us
  %.025.lcssa.us = phi i32 [ 0, %.preheader.us ], [ %26, %._crit_edge.us.loopexit ]
  %27 = tail call i32 @llvm.smax.i32(i32 %.025.lcssa.us, i32 0)
  %28 = tail call i32 @llvm.umin.i32(i32 %27, i32 255)
  %29 = trunc nuw i32 %28 to i8
  %gep53 = getelementptr i8, ptr %invariant.gep52, i64 %indvars.iv40
  store i8 %29, ptr %gep53, align 1
  %indvars.iv.next41 = add nuw nsw i64 %indvars.iv40, 1
  %exitcond44.not = icmp eq i64 %indvars.iv.next41, %wide.trip.count43
  br i1 %exitcond44.not, label %._crit_edge34.us, label %.preheader.us, !llvm.loop !23

.lr.ph.us:                                        ; preds = %.lr.ph.us.preheader, %.lr.ph.us
  %indvars.iv = phi i64 [ 0, %.lr.ph.us.preheader ], [ %indvars.iv.next, %.lr.ph.us ]
  %.02531.us = phi i32 [ 0, %.lr.ph.us.preheader ], [ %38, %.lr.ph.us ]
  %30 = getelementptr inbounds nuw i16, ptr %15, i64 %indvars.iv
  %31 = load i16, ptr %30, align 2
  %32 = sext i16 %31 to i32
  %33 = add nsw i64 %23, %indvars.iv
  %34 = mul nsw i64 %33, %19
  %gep = getelementptr i8, ptr %invariant.gep, i64 %34
  %35 = load i8, ptr %gep, align 1
  %36 = zext i8 %35 to i32
  %37 = mul nsw i32 %36, %32
  %38 = add nsw i32 %37, %.02531.us
  %indvars.iv.next = add nuw nsw i64 %indvars.iv, 1
  %exitcond.not = icmp eq i64 %indvars.iv.next, %wide.trip.count
  br i1 %exitcond.not, label %._crit_edge.us.loopexit, label %.lr.ph.us, !llvm.loop !24

.preheader.us:                                    ; preds = %.preheader30.us, %._crit_edge.us
  %indvars.iv40 = phi i64 [ 0, %.preheader30.us ], [ %indvars.iv.next41, %._crit_edge.us ]
  %39 = load i16, ptr %9, align 8
  %.not = icmp eq i16 %39, 0
  br i1 %.not, label %._crit_edge.us, label %.lr.ph.us.preheader

.lr.ph.us.preheader:                              ; preds = %.preheader.us
  %wide.trip.count = zext i16 %39 to i64
  %invariant.gep = getelementptr i8, ptr %0, i64 %indvars.iv40
  br label %.lr.ph.us

._crit_edge34.us:                                 ; preds = %._crit_edge.us
  %indvars.iv.next46 = add nuw nsw i64 %indvars.iv45, 1
  %exitcond51.not = icmp eq i64 %indvars.iv.next46, %wide.trip.count50
  br i1 %exitcond51.not, label %._crit_edge36, label %.preheader30.us, !llvm.loop !25

._crit_edge36:                                    ; preds = %._crit_edge34.us, %8
  ret void
}